target datalayout = "e-m:e-p270:32:32-p271:32:32-p272:64:64-i64:64-i128:128-f80:128-n8:16:32:64-S128"
target triple = "x86_64-pc-linux-gnu"

; Function Attrs: null_pointer_is_valid sspstrong uwtable
define zeroext i1 @json_decode_string_inplace(ptr noundef %0) #0 {
  %2 = alloca i1, align 1
  %3 = alloca ptr, align 8
  %4 = alloca ptr, align 8
  %5 = alloca ptr, align 8
  %6 = alloca i8, align 1
  %7 = alloca i32, align 4
  %8 = alloca i32, align 4
  %9 = alloca i32, align 4
  %10 = alloca i32, align 4
  %11 = alloca i16, align 2
  %12 = alloca i16, align 2
  store ptr %0, ptr %3, align 8
  call void @llvm.lifetime.start.p0(i64 8, ptr %4) #9
  %13 = load ptr, ptr %3, align 8
  store ptr %13, ptr %4, align 8
  call void @llvm.lifetime.start.p0(i64 8, ptr %5) #9
  %14 = load ptr, ptr %3, align 8
  store ptr %14, ptr %5, align 8
  br label %15

15:                                               ; preds = %181, %1
  %16 = load ptr, ptr %4, align 8
  %17 = load i8, ptr %16, align 1
  %18 = icmp ne i8 %17, 0
  br i1 %18, label %19, label %182

19:                                               ; preds = %15
  call void @llvm.lifetime.start.p0(i64 1, ptr %6) #9
  %20 = load ptr, ptr %4, align 8
  %21 = getelementptr i8, ptr %20, i32 1
  store ptr %21, ptr %4, align 8
  %22 = load i8, ptr %20, align 1
  store i8 %22, ptr %6, align 1
  %23 = load i8, ptr %6, align 1
  %24 = sext i8 %23 to i32
  %25 = icmp eq i32 %24, 92
  br i1 %25, label %26, label %173

26:                                               ; preds = %19
  %27 = load ptr, ptr %4, align 8
  %28 = getelementptr i8, ptr %27, i32 1
  store ptr %28, ptr %4, align 8
  %29 = load i8, ptr %27, align 1
  store i8 %29, ptr %6, align 1
  %30 = load i8, ptr %6, align 1
  %31 = sext i8 %30 to i32
  switch i32 %31, label %171 [
    i32 34, label %32
    i32 92, label %32
    i32 47, label %32
    i32 98, label %36
    i32 102, label %39
    i32 110, label %42
    i32 114, label %45
    i32 116, label %48
    i32 117, label %51
  ]

32:                                               ; preds = %26, %26, %26
  %33 = load i8, ptr %6, align 1
  %34 = load ptr, ptr %5, align 8
  %35 = getelementptr i8, ptr %34, i32 1
  store ptr %35, ptr %5, align 8
  store i8 %33, ptr %34, align 1
  br label %172

36:                                               ; preds = %26
  %37 = load ptr, ptr %5, align 8
  %38 = getelementptr i8, ptr %37, i32 1
  store ptr %38, ptr %5, align 8
  store i8 8, ptr %37, align 1
  br label %172

39:                                               ; preds = %26
  %40 = load ptr, ptr %5, align 8
  %41 = getelementptr i8, ptr %40, i32 1
  store ptr %41, ptr %5, align 8
  store i8 12, ptr %40, align 1
  br label %172

42:                                               ; preds = %26
  %43 = load ptr, ptr %5, align 8
  %44 = getelementptr i8, ptr %43, i32 1
  store ptr %44, ptr %5, align 8
  store i8 10, ptr %43, align 1
  br label %172

45:                                               ; preds = %26
  %46 = load ptr, ptr %5, align 8
  %47 = getelementptr i8, ptr %46, i32 1
  store ptr %47, ptr %5, align 8
  store i8 13, ptr %46, align 1
  br label %172

48:                                               ; preds = %26
  %49 = load ptr, ptr %5, align 8
  %50 = getelementptr i8, ptr %49, i32 1
  store ptr %50, ptr %5, align 8
  store i8 9, ptr %49, align 1
  br label %172

51:                                               ; preds = %26
  call void @llvm.lifetime.start.p0(i64 4, ptr %7) #9
  store i32 0, ptr %7, align 4
  call void @llvm.lifetime.start.p0(i64 4, ptr %8) #9
  call void @llvm.lifetime.start.p0(i64 4, ptr %9) #9
  store i32 0, ptr %8, align 4
  br label %52

52:                                               ; preds = %70, %51
  %53 = load i32, ptr %8, align 4
  %54 = icmp slt i32 %53, 4
  br i1 %54, label %55, label %73

55:                                               ; preds = %52
  %56 = load i32, ptr %7, align 4
  %57 = shl i32 %56, 4
  store i32 %57, ptr %7, align 4
  %58 = load ptr, ptr %4, align 8
  %59 = getelementptr i8, ptr %58, i32 1
  store ptr %59, ptr %4, align 8
  %60 = load i8, ptr %58, align 1
  store i8 %60, ptr %6, align 1
  %61 = load i8, ptr %6, align 1
  %62 = call i32 @ws_xton(i8 noundef signext %61)
  store i32 %62, ptr %9, align 4
  %63 = load i32, ptr %9, align 4
  %64 = icmp eq i32 %63, -1
  br i1 %64, label %65, label %66

65:                                               ; preds = %55
  store i1 false, ptr %2, align 1
  store i32 1, ptr %10, align 4
  br label %169

66:                                               ; preds = %55
  %67 = load i32, ptr %9, align 4
  %68 = load i32, ptr %7, align 4
  %69 = or i32 %68, %67
  store i32 %69, ptr %7, align 4
  br label %70

70:                                               ; preds = %66
  %71 = load i32, ptr %8, align 4
  %72 = add i32 %71, 1
  store i32 %72, ptr %8, align 4
  br label %52, !llvm.loop !14

73:                                               ; preds = %52
  %74 = load i32, ptr %7, align 4
  %75 = icmp uge i32 %74, 55296
  br i1 %75, label %76, label %144

76:                                               ; preds = %73
  %77 = load i32, ptr %7, align 4
  %78 = icmp ult i32 %77, 56320
  br i1 %78, label %79, label %144

79:                                               ; preds = %76
  call void @llvm.lifetime.start.p0(i64 2, ptr %11) #9
  %80 = load i32, ptr %7, align 4
  %81 = trunc i32 %80 to i16
  store i16 %81, ptr %11, align 2
  call void @llvm.lifetime.start.p0(i64 2, ptr %12) #9
  store i16 0, ptr %12, align 2
  %82 = load ptr, ptr %4, align 8
  %83 = getelementptr i8, ptr %82, i64 0
  %84 = load i8, ptr %83, align 1
  %85 = sext i8 %84 to i32
  %86 = icmp ne i32 %85, 92
  br i1 %86, label %93, label %87

87:                                               ; preds = %79
  %88 = load ptr, ptr %4, align 8
  %89 = getelementptr i8, ptr %88, i64 1
  %90 = load i8, ptr %89, align 1
  %91 = sext i8 %90 to i32
  %92 = icmp ne i32 %91, 117
  br i1 %92, label %93, label %94

93:                                               ; preds = %87, %79
  store i1 false, ptr %2, align 1
  store i32 1, ptr %10, align 4
  br label %141

94:                                               ; preds = %87
  %95 = load ptr, ptr %4, align 8
  %96 = getelementptr i8, ptr %95, i64 2
  store ptr %96, ptr %4, align 8
  store i32 0, ptr %8, align 4
  br label %97

97:                                               ; preds = %119, %94
  %98 = load i32, ptr %8, align 4
  %99 = icmp slt i32 %98, 4
  br i1 %99, label %100, label %122

100:                                              ; preds = %97
  %101 = load i16, ptr %12, align 2
  %102 = zext i16 %101 to i32
  %103 = shl i32 %102, 4
  %104 = trunc i32 %103 to i16
  store i16 %104, ptr %12, align 2
  %105 = load ptr, ptr %4, align 8
  %106 = getelementptr i8, ptr %105, i32 1
  store ptr %106, ptr %4, align 8
  %107 = load i8, ptr %105, align 1
  store i8 %107, ptr %6, align 1
  %108 = load i8, ptr %6, align 1
  %109 = call i32 @ws_xton(i8 noundef signext %108)
  store i32 %109, ptr %9, align 4
  %110 = load i32, ptr %9, align 4
  %111 = icmp eq i32 %110, -1
  br i1 %111, label %112, label %113

112:                                              ; preds = %100
  store i1 false, ptr %2, align 1
  store i32 1, ptr %10, align 4
  br label %141

113:                                              ; preds = %100
  %114 = load i32, ptr %9, align 4
  %115 = load i16, ptr %12, align 2
  %116 = zext i16 %115 to i32
  %117 = or i32 %116, %114
  %118 = trunc i32 %117 to i16
  store i16 %118, ptr %12, align 2
  br label %119

119:                                              ; preds = %113
  %120 = load i32, ptr %8, align 4
  %121 = add i32 %120, 1
  store i32 %121, ptr %8, align 4
  br label %97, !llvm.loop !15

122:                                              ; preds = %97
  %123 = load i16, ptr %12, align 2
  %124 = zext i16 %123 to i32
  %125 = icmp sge i32 %124, 56320
  br i1 %125, label %126, label %130

126:                                              ; preds = %122
  %127 = load i16, ptr %12, align 2
  %128 = zext i16 %127 to i32
  %129 = icmp slt i32 %128, 57344
  br i1 %129, label %131, label %130

130:                                              ; preds = %126, %122
  store i1 false, ptr %2, align 1
  store i32 1, ptr %10, align 4
  br label %141

131:                                              ; preds = %126
  %132 = load i16, ptr %11, align 2
  %133 = zext i16 %132 to i32
  %134 = sub i32 %133, 55296
  %135 = shl i32 %134, 10
  %136 = load i16, ptr %12, align 2
  %137 = zext i16 %136 to i32
  %138 = sub i32 %137, 56320
  %139 = or i32 %135, %138
  %140 = add i32 %139, 65536
  store i32 %140, ptr %7, align 4
  store i32 0, ptr %10, align 4
  br label %141

141:                                              ; preds = %131, %130, %112, %93
  call void @llvm.lifetime.end.p0(i64 2, ptr %12) #9
  call void @llvm.lifetime.end.p0(i64 2, ptr %11) #9
  %142 = load i32, ptr %10, align 4
  switch i32 %142, label %169 [
    i32 0, label %143
  ]

143:                                              ; preds = %141
  br label %152

144:                                              ; preds = %76, %73
  %145 = load i32, ptr %7, align 4
  %146 = icmp uge i32 %145, 56320
  br i1 %146, label %147, label %151

147:                                              ; preds = %144
  %148 = load i32, ptr %7, align 4
  %149 = icmp ult i32 %148, 57344
  br i1 %149, label %150, label %151

150:                                              ; preds = %147
  store i1 false, ptr %2, align 1
  store i32 1, ptr %10, align 4
  br label %169

151:                                              ; preds = %147, %144
  br label %152

152:                                              ; preds = %151, %143
  %153 = load i32, ptr %7, align 4
  %154 = call i32 @g_unichar_validate(i32 noundef %153) #13
  %155 = icmp ne i32 %154, 0
  br i1 %155, label %157, label %156

156:                                              ; preds = %152
  store i1 false, ptr %2, align 1
  store i32 1, ptr %10, align 4
  br label %169

157:                                              ; preds = %152
  %158 = load i32, ptr %7, align 4
  %159 = icmp eq i32 %158, 0
  br i1 %159, label %160, label %161

160:                                              ; preds = %157
  store i1 false, ptr %2, align 1
  store i32 1, ptr %10, align 4
  br label %169

161:                                              ; preds = %157
  %162 = load i32, ptr %7, align 4
  %163 = load ptr, ptr %5, align 8
  %164 = call i32 @g_unichar_to_utf8(i32 noundef %162, ptr noundef %163)
  store i32 %164, ptr %8, align 4
  %165 = load i32, ptr %8, align 4
  %166 = load ptr, ptr %5, align 8
  %167 = sext i32 %165 to i64
  %168 = getelementptr i8, ptr %166, i64 %167
  store ptr %168, ptr %5, align 8
  store i32 4, ptr %10, align 4
  br label %169

169:                                              ; preds = %161, %160, %156, %150, %141, %65
  call void @llvm.lifetime.end.p0(i64 4, ptr %9) #9
  call void @llvm.lifetime.end.p0(i64 4, ptr %8) #9
  call void @llvm.lifetime.end.p0(i64 4, ptr %7) #9
  %170 = load i32, ptr %10, align 4
  switch i32 %170, label %179 [
    i32 4, label %172
  ]

171:                                              ; preds = %26
  store i1 false, ptr %2, align 1
  store i32 1, ptr %10, align 4
  br label %179

172:                                              ; preds = %169, %48, %45, %42, %39, %36, %32
  br label %178

173:                                              ; preds = %19
  %174 = load i8, ptr %6, align 1
  %175 = load ptr, ptr %5, align 8
  store i8 %174, ptr %175, align 1
  %176 = load ptr, ptr %5, align 8
  %177 = getelementptr i8, ptr %176, i32 1
  store ptr %177, ptr %5, align 8
  br label %178

178:                                              ; preds = %173, %172
  store i32 0, ptr %10, align 4
  br label %179

179:                                              ; preds = %178, %171, %169
  call void @llvm.lifetime.end.p0(i64 1, ptr %6) #9
  %180 = load i32, ptr %10, align 4
  switch i32 %180, label %184 [
    i32 0, label %181
  ]

181:                                              ; preds = %179
  br label %15, !llvm.loop !16

182:                                              ; preds = %15
  %183 = load ptr, ptr %5, align 8
  store i8 0, ptr %183, align 1
  store i1 true, ptr %2, align 1
  store i32 1, ptr %10, align 4
  br label %184

184:                                              ; preds = %182, %179
  call void @llvm.lifetime.end.p0(i64 8, ptr %5) #9
  call void @llvm.lifetime.end.p0(i64 8, ptr %4) #9
  %185 = load i1, ptr %2, align 1
  ret i1 %185
}